; Function Attrs: nofree norecurse nosync nounwind memory(argmem: readwrite) uwtable
define internal void @biweight_h264_pixels8_10_c(ptr noundef captures(none) %0, ptr noundef readonly captures(none) %1, i64 noundef %2, i32 noundef %3, i32 noundef %4, i32 noundef %5, i32 noundef %6, i32 noundef %7) #1 {
  %9 = ashr i64 %2, 1
  %10 = shl i32 %7, 2
  %11 = or disjoint i32 %10, 1
  %12 = shl i32 %11, %4
  %13 = icmp sgt i32 %3, 0
  br i1 %13, label %.lr.ph, label %._crit_edge

.lr.ph:                                           ; preds = %8
  %14 = add nsw i32 %4, 1
  br label %15

15:                                               ; preds = %.lr.ph, %15
  %.093 = phi ptr [ %1, %.lr.ph ], [ %128, %15 ]
  %.06892 = phi ptr [ %0, %.lr.ph ], [ %127, %15 ]
  %.06991 = phi i32 [ 0, %.lr.ph ], [ %126, %15 ]
  %16 = load i16, ptr %.093, align 2, !tbaa !37
  %17 = zext i16 %16 to i32
  %18 = mul nsw i32 %6, %17
  %19 = load i16, ptr %.06892, align 2, !tbaa !37
  %20 = zext i16 %19 to i32
  %21 = mul nsw i32 %5, %20
  %22 = add i32 %18, %12
  %23 = add i32 %22, %21
  %24 = ashr i32 %23, %14
  %25 = tail call i32 @llvm.smax.i32(i32 %24, i32 0)
  %26 = tail call i32 @llvm.umin.i32(i32 %25, i32 1023)
  %27 = trunc nuw nsw i32 %26 to i16
  store i16 %27, ptr %.06892, align 2, !tbaa !37
  %28 = getelementptr inbounds nuw i8, ptr %.093, i64 2
  %29 = load i16, ptr %28, align 2, !tbaa !37
  %30 = zext i16 %29 to i32
  %31 = mul nsw i32 %6, %30
  %32 = getelementptr inbounds nuw i8, ptr %.06892, i64 2
  %33 = load i16, ptr %32, align 2, !tbaa !37
  %34 = zext i16 %33 to i32
  %35 = mul nsw i32 %5, %34
  %36 = add i32 %31, %12
  %37 = add i32 %36, %35
  %38 = ashr i32 %37, %14
  %39 = tail call i32 @llvm.smax.i32(i32 %38, i32 0)
  %40 = tail call i32 @llvm.umin.i32(i32 %39, i32 1023)
  %41 = trunc nuw nsw i32 %40 to i16
  store i16 %41, ptr %32, align 2, !tbaa !37
  %42 = getelementptr inbounds nuw i8, ptr %.093, i64 4
  %43 = load i16, ptr %42, align 2, !tbaa !37
  %44 = zext i16 %43 to i32
  %45 = mul nsw i32 %6, %44
  %46 = getelementptr inbounds nuw i8, ptr %.06892, i64 4
  %47 = load i16, ptr %46, align 2, !tbaa !37
  %48 = zext i16 %47 to i32
  %49 = mul nsw i32 %5, %48
  %50 = add i32 %45, %12
  %51 = add i32 %50, %49
  %52 = ashr i32 %51, %14
  %53 = tail call i32 @llvm.smax.i32(i32 %52, i32 0)
  %54 = tail call i32 @llvm.umin.i32(i32 %53, i32 1023)
  %55 = trunc nuw nsw i32 %54 to i16
  store i16 %55, ptr %46, align 2, !tbaa !37
  %56 = getelementptr inbounds nuw i8, ptr %.093, i64 6
  %57 = load i16, ptr %56, align 2, !tbaa !37
  %58 = zext i16 %57 to i32
  %59 = mul nsw i32 %6, %58
  %60 = getelementptr inbounds nuw i8, ptr %.06892, i64 6
  %61 = load i16, ptr %60, align 2, !tbaa !37
  %62 = zext i16 %61 to i32
  %63 = mul nsw i32 %5, %62
  %64 = add i32 %59, %12
  %65 = add i32 %64, %63
  %66 = ashr i32 %65, %14
  %67 = tail call i32 @llvm.smax.i32(i32 %66, i32 0)
  %68 = tail call i32 @llvm.umin.i32(i32 %67, i32 1023)
  %69 = trunc nuw nsw i32 %68 to i16
  store i16 %69, ptr %60, align 2, !tbaa !37
  %70 = getelementptr inbounds nuw i8, ptr %.093, i64 8
  %71 = load i16, ptr %70, align 2, !tbaa !37
  %72 = zext i16 %71 to i32
  %73 = mul nsw i32 %6, %72
  %74 = getelementptr inbounds nuw i8, ptr %.06892, i64 8
  %75 = load i16, ptr %74, align 2, !tbaa !37
  %76 = zext i16 %75 to i32
  %77 = mul nsw i32 %5, %76
  %78 = add i32 %73, %12
  %79 = add i32 %78, %77
  %80 = ashr i32 %79, %14
  %81 = tail call i32 @llvm.smax.i32(i32 %80, i32 0)
  %82 = tail call i32 @llvm.umin.i32(i32 %81, i32 1023)
  %83 = trunc nuw nsw i32 %82 to i16
  store i16 %83, ptr %74, align 2, !tbaa !37
  %84 = getelementptr inbounds nuw i8, ptr %.093, i64 10
  %85 = load i16, ptr %84, align 2, !tbaa !37
  %86 = zext i16 %85 to i32
  %87 = mul nsw i32 %6, %86
  %88 = getelementptr inbounds nuw i8, ptr %.06892, i64 10
  %89 = load i16, ptr %88, align 2, !tbaa !37
  %90 = zext i16 %89 to i32
  %91 = mul nsw i32 %5, %90
  %92 = add i32 %87, %12
  %93 = add i32 %92, %91
  %94 = ashr i32 %93, %14
  %95 = tail call i32 @llvm.smax.i32(i32 %94, i32 0)
  %96 = tail call i32 @llvm.umin.i32(i32 %95, i32 1023)
  %97 = trunc nuw nsw i32 %96 to i16
  store i16 %97, ptr %88, align 2, !tbaa !37
  %98 = getelementptr inbounds nuw i8, ptr %.093, i64 12
  %99 = load i16, ptr %98, align 2, !tbaa !37
  %100 = zext i16 %99 to i32
  %101 = mul nsw i32 %6, %100
  %102 = getelementptr inbounds nuw i8, ptr %.06892, i64 12
  %103 = load i16, ptr %102, align 2, !tbaa !37
  %104 = zext i16 %103 to i32
  %105 = mul nsw i32 %5, %104
  %106 = add i32 %101, %12
  %107 = add i32 %106, %105
  %108 = ashr i32 %107, %14
  %109 = tail call i32 @llvm.smax.i32(i32 %108, i32 0)
  %110 = tail call i32 @llvm.umin.i32(i32 %109, i32 1023)
  %111 = trunc nuw nsw i32 %110 to i16
  store i16 %111, ptr %102, align 2, !tbaa !37
  %112 = getelementptr inbounds nuw i8, ptr %.093, i64 14
  %113 = load i16, ptr %112, align 2, !tbaa !37
  %114 = zext i16 %113 to i32
  %115 = mul nsw i32 %6, %114
  %116 = getelementptr inbounds nuw i8, ptr %.06892, i64 14
  %117 = load i16, ptr %116, align 2, !tbaa !37
  %118 = zext i16 %117 to i32
  %119 = mul nsw i32 %5, %118
  %120 = add i32 %115, %12
  %121 = add i32 %120, %119
  %122 = ashr i32 %121, %14
  %123 = tail call i32 @llvm.smax.i32(i32 %122, i32 0)
  %124 = tail call i32 @llvm.umin.i32(i32 %123, i32 1023)
  %125 = trunc nuw nsw i32 %124 to i16
  store i16 %125, ptr %116, align 2, !tbaa !37
  %126 = add nuw nsw i32 %.06991, 1
  %127 = getelementptr inbounds i16, ptr %.06892, i64 %9
  %128 = getelementptr inbounds i16, ptr %.093, i64 %9
  %exitcond.not = icmp eq i32 %126, %3
  br i1 %exitcond.not, label %._crit_edge, label %15, !llvm.loop !64

._crit_edge:                                      ; preds = %15, %8
  ret void
}